target datalayout = "e-m:e-p270:32:32-p271:32:32-p272:64:64-i64:64-i128:128-f80:128-n8:16:32:64-S128"
target triple = "x86_64-pc-linux-gnu"

%struct.PaUtilAllocationGroup = type { i64, ptr, ptr, ptr }
%struct.PaUtilAllocationGroupLink = type { ptr, ptr }

; Function Attrs: nounwind uwtable
define void @PaUtil_DestroyAllocationGroup(ptr noundef %0) #0 {
  %2 = alloca ptr, align 8
  %3 = alloca ptr, align 8
  %4 = alloca ptr, align 8
  store ptr %0, ptr %2, align 8, !tbaa !3
  call void @llvm.lifetime.start.p0(i64 8, ptr %3) #3
  %5 = load ptr, ptr %2, align 8, !tbaa !3
  %6 = getelementptr inbounds nuw %struct.PaUtilAllocationGroup, ptr %5, i32 0, i32 1
  %7 = load ptr, ptr %6, align 8, !tbaa !12
  store ptr %7, ptr %3, align 8, !tbaa !7
  call void @llvm.lifetime.start.p0(i64 8, ptr %4) #3
  br label %8

8:                                                ; preds = %11, %1
  %9 = load ptr, ptr %3, align 8, !tbaa !7
  %10 = icmp ne ptr %9, null
  br i1 %10, label %11, label %19

11:                                               ; preds = %8
  %12 = load ptr, ptr %3, align 8, !tbaa !7
  %13 = getelementptr inbounds nuw %struct.PaUtilAllocationGroupLink, ptr %12, i32 0, i32 0
  %14 = load ptr, ptr %13, align 8, !tbaa !18
  store ptr %14, ptr %4, align 8, !tbaa !7
  %15 = load ptr, ptr %3, align 8, !tbaa !7
  %16 = getelementptr inbounds nuw %struct.PaUtilAllocationGroupLink, ptr %15, i32 0, i32 1
  %17 = load ptr, ptr %16, align 8, !tbaa !16
  call void @PaUtil_FreeMemory(ptr noundef %17)
  %18 = load ptr, ptr %4, align 8, !tbaa !7
  store ptr %18, ptr %3, align 8, !tbaa !7
  br label %8, !llvm.loop !23

19:                                               ; preds = %8
  %20 = load ptr, ptr %2, align 8, !tbaa !3
  call void @PaUtil_FreeMemory(ptr noundef %20)
  call void @llvm.lifetime.end.p0(i64 8, ptr %4) #3
  call void @llvm.lifetime.end.p0(i64 8, ptr %3) #3
  ret void
}