; Function Attrs: nounwind uwtable
define void @PaUtil_DestroyAllocationGroup(ptr noundef %0) local_unnamed_addr #0 {
  %2 = getelementptr inbounds nuw i8, ptr %0, i64 8
  %3 = load ptr, ptr %2, align 8, !tbaa !15
  %.not6 = icmp eq ptr %3, null
  br i1 %.not6, label %._crit_edge, label %.lr.ph

.lr.ph:                                           ; preds = %1, %.lr.ph
  %.07 = phi ptr [ %4, %.lr.ph ], [ %3, %1 ]
  %4 = load ptr, ptr %.07, align 8, !tbaa !9
  %5 = getelementptr inbounds nuw i8, ptr %.07, i64 8
  %6 = load ptr, ptr %5, align 8, !tbaa !3
  tail call void @PaUtil_FreeMemory(ptr noundef %6) #2
  %.not = icmp eq ptr %4, null
  br i1 %.not, label %._crit_edge, label %.lr.ph, !llvm.loop !18

._crit_edge:                                      ; preds = %.lr.ph, %1
  tail call void @PaUtil_FreeMemory(ptr noundef %0) #2
  ret void
}